target datalayout = "e-m:e-p270:32:32-p271:32:32-p272:64:64-i64:64-i128:128-f80:128-n8:16:32:64-S128"
target triple = "x86_64-pc-linux-gnu"

%struct.vtx_data = type { i32, ptr }

@stderr = external global ptr, align 8
@.str.4 = private unnamed_addr constant [58 x i8] c"integer overflow when trying to allocate %zu * %zu bytes\0A\00", align 1
@.str.5 = private unnamed_addr constant [49 x i8] c"out of memory when trying to allocate %zu bytes\0A\00", align 1

; Function Attrs: inlinehint nounwind uwtable
define internal ptr @gv_calloc(i64 noundef %0, i64 noundef %1) #3 {
  %3 = alloca i64, align 8
  %4 = alloca i64, align 8
  %5 = alloca ptr, align 8
  store i64 %0, ptr %3, align 8, !tbaa !46
  store i64 %1, ptr %4, align 8, !tbaa !46
  %6 = load i64, ptr %3, align 8, !tbaa !46
  %7 = icmp ugt i64 %6, 0
  br i1 %7, label %8, label %18

8:                                                ; preds = %2
  %9 = load i64, ptr %3, align 8, !tbaa !46
  %10 = udiv i64 -1, %9
  %11 = load i64, ptr %4, align 8, !tbaa !46
  %12 = icmp ult i64 %10, %11
  br i1 %12, label %13, label %18

13:                                               ; preds = %8
  %14 = load ptr, ptr @stderr, align 8, !tbaa !14
  %15 = load i64, ptr %3, align 8, !tbaa !46
  %16 = load i64, ptr %4, align 8, !tbaa !46
  %17 = call i32 (ptr, ptr, ...) @fprintf(ptr noundef %14, ptr noundef @.str.4, i64 noundef %15, i64 noundef %16) #11
  call void @graphviz_exit(i32 noundef 1) #12
  unreachable

18:                                               ; preds = %8, %2
  call void @llvm.lifetime.start.p0(i64 8, ptr %5) #11
  %19 = load i64, ptr %3, align 8, !tbaa !46
  %20 = load i64, ptr %4, align 8, !tbaa !46
  %21 = call noalias ptr @calloc(i64 noundef %19, i64 noundef %20) #13
  store ptr %21, ptr %5, align 8, !tbaa !8
  %22 = load i64, ptr %3, align 8, !tbaa !46
  %23 = icmp ugt i64 %22, 0
  br i1 %23, label %24, label %36

24:                                               ; preds = %18
  %25 = load i64, ptr %4, align 8, !tbaa !46
  %26 = icmp ugt i64 %25, 0
  br i1 %26, label %27, label %36

27:                                               ; preds = %24
  %28 = load ptr, ptr %5, align 8, !tbaa !8
  %29 = icmp eq ptr %28, null
  br i1 %29, label %30, label %36

30:                                               ; preds = %27
  %31 = load ptr, ptr @stderr, align 8, !tbaa !14
  %32 = load i64, ptr %3, align 8, !tbaa !46
  %33 = load i64, ptr %4, align 8, !tbaa !46
  %34 = mul i64 %32, %33
  %35 = call i32 (ptr, ptr, ...) @fprintf(ptr noundef %31, ptr noundef @.str.5, i64 noundef %34) #11
  call void @graphviz_exit(i32 noundef 1) #12
  unreachable

36:                                               ; preds = %27, %24, %18
  %37 = load ptr, ptr %5, align 8, !tbaa !8
  call void @llvm.lifetime.end.p0(i64 8, ptr %5) #11
  ret ptr %37
}

; Function Attrs: nounwind uwtable
define dso_local void @makeTetrix(i32 noundef %0, ptr noundef %1) #0 {
  %3 = alloca i32, align 4
  %4 = alloca ptr, align 8
  %5 = alloca ptr, align 8
  %6 = alloca i32, align 4
  %7 = alloca ptr, align 8
  %8 = alloca i32, align 4
  %9 = alloca i32, align 4
  %10 = alloca i32, align 4
  %11 = alloca i32, align 4
  %12 = alloca i32, align 4
  store i32 %0, ptr %3, align 4, !tbaa !4
  store ptr %1, ptr %4, align 8, !tbaa !8
  call void @llvm.lifetime.start.p0(i64 8, ptr %5) #11
  %13 = load i32, ptr %3, align 4, !tbaa !4
  %14 = add i32 %13, -1
  store i32 %14, ptr %3, align 4, !tbaa !4
  call void @llvm.lifetime.start.p0(i64 4, ptr %6) #11
  %15 = load i32, ptr %3, align 4, !tbaa !4
  %16 = uitofp i32 %15 to double
  %17 = call double @pow(double noundef 4.000000e+00, double noundef %16) #11, !tbaa !4
  %18 = fadd double %17, 5.000000e-01
  %19 = fptoui double %18 to i32
  %20 = sub i32 %19, 1
  %21 = mul i32 2, %20
  %22 = add i32 4, %21
  store i32 %22, ptr %6, align 4, !tbaa !4
  %23 = load i32, ptr %6, align 4, !tbaa !4
  %24 = add i32 %23, 1
  %25 = zext i32 %24 to i64
  %26 = call ptr @gv_calloc(i64 noundef %25, i64 noundef 16)
  store ptr %26, ptr %5, align 8, !tbaa !8
  call void @llvm.lifetime.start.p0(i64 8, ptr %7) #11
  %27 = load i32, ptr %6, align 4, !tbaa !4
  %28 = mul i32 6, %27
  %29 = zext i32 %28 to i64
  %30 = call ptr @gv_calloc(i64 noundef %29, i64 noundef 4)
  store ptr %30, ptr %7, align 8, !tbaa !38
  call void @llvm.lifetime.start.p0(i64 4, ptr %8) #11
  store i32 1, ptr %8, align 4, !tbaa !4
  br label %31

31:                                               ; preds = %50, %2
  %32 = load i32, ptr %8, align 4, !tbaa !4
  %33 = load i32, ptr %6, align 4, !tbaa !4
  %34 = icmp ule i32 %32, %33
  br i1 %34, label %36, label %35

35:                                               ; preds = %31
  call void @llvm.lifetime.end.p0(i64 4, ptr %8) #11
  br label %53

36:                                               ; preds = %31
  %37 = load ptr, ptr %7, align 8, !tbaa !38
  %38 = load ptr, ptr %5, align 8, !tbaa !8
  %39 = load i32, ptr %8, align 4, !tbaa !4
  %40 = zext i32 %39 to i64
  %41 = getelementptr inbounds nuw %struct.vtx_data, ptr %38, i64 %40
  %42 = getelementptr inbounds nuw %struct.vtx_data, ptr %41, i32 0, i32 1
  store ptr %37, ptr %42, align 8, !tbaa !40
  %43 = load ptr, ptr %7, align 8, !tbaa !38
  %44 = getelementptr inbounds i32, ptr %43, i64 6
  store ptr %44, ptr %7, align 8, !tbaa !38
  %45 = load ptr, ptr %5, align 8, !tbaa !8
  %46 = load i32, ptr %8, align 4, !tbaa !4
  %47 = zext i32 %46 to i64
  %48 = getelementptr inbounds nuw %struct.vtx_data, ptr %45, i64 %47
  %49 = getelementptr inbounds nuw %struct.vtx_data, ptr %48, i32 0, i32 0
  store i32 0, ptr %49, align 8, !tbaa !42
  br label %50

50:                                               ; preds = %36
  %51 = load i32, ptr %8, align 4, !tbaa !4
  %52 = add i32 %51, 1
  store i32 %52, ptr %8, align 4, !tbaa !4
  br label %31, !llvm.loop !48

53:                                               ; preds = %35
  %54 = load i32, ptr %3, align 4, !tbaa !4
  %55 = load ptr, ptr %5, align 8, !tbaa !8
  call void @constructTetrix(i32 noundef 1, i32 noundef 2, i32 noundef 3, i32 noundef 4, i32 noundef %54, ptr noundef %55)
  call void @llvm.lifetime.start.p0(i64 4, ptr %9) #11
  store i32 1, ptr %9, align 4, !tbaa !4
  br label %56

56:                                               ; preds = %95, %53
  %57 = load i32, ptr %9, align 4, !tbaa !4
  %58 = load i32, ptr %6, align 4, !tbaa !4
  %59 = icmp ule i32 %57, %58
  br i1 %59, label %61, label %60

60:                                               ; preds = %56
  store i32 5, ptr %10, align 4
  call void @llvm.lifetime.end.p0(i64 4, ptr %9) #11
  br label %98

61:                                               ; preds = %56
  call void @llvm.lifetime.start.p0(i64 4, ptr %11) #11
  store i32 0, ptr %11, align 4, !tbaa !4
  br label %62

62:                                               ; preds = %91, %61
  %63 = load i32, ptr %11, align 4, !tbaa !4
  %64 = load ptr, ptr %5, align 8, !tbaa !8
  %65 = load i32, ptr %9, align 4, !tbaa !4
  %66 = zext i32 %65 to i64
  %67 = getelementptr inbounds nuw %struct.vtx_data, ptr %64, i64 %66
  %68 = getelementptr inbounds nuw %struct.vtx_data, ptr %67, i32 0, i32 0
  %69 = load i32, ptr %68, align 8, !tbaa !42
  %70 = icmp ult i32 %63, %69
  br i1 %70, label %72, label %71

71:                                               ; preds = %62
  store i32 8, ptr %10, align 4
  call void @llvm.lifetime.end.p0(i64 4, ptr %11) #11
  br label %94

72:                                               ; preds = %62
  call void @llvm.lifetime.start.p0(i64 4, ptr %12) #11
  %73 = load ptr, ptr %5, align 8, !tbaa !8
  %74 = load i32, ptr %9, align 4, !tbaa !4
  %75 = zext i32 %74 to i64
  %76 = getelementptr inbounds nuw %struct.vtx_data, ptr %73, i64 %75
  %77 = getelementptr inbounds nuw %struct.vtx_data, ptr %76, i32 0, i32 1
  %78 = load ptr, ptr %77, align 8, !tbaa !40
  %79 = load i32, ptr %11, align 4, !tbaa !4
  %80 = zext i32 %79 to i64
  %81 = getelementptr inbounds nuw i32, ptr %78, i64 %80
  %82 = load i32, ptr %81, align 4, !tbaa !4
  store i32 %82, ptr %12, align 4, !tbaa !4
  %83 = load i32, ptr %9, align 4, !tbaa !4
  %84 = load i32, ptr %12, align 4, !tbaa !4
  %85 = icmp ult i32 %83, %84
  br i1 %85, label %86, label %90

86:                                               ; preds = %72
  %87 = load ptr, ptr %4, align 8, !tbaa !8
  %88 = load i32, ptr %9, align 4, !tbaa !4
  %89 = load i32, ptr %12, align 4, !tbaa !4
  call void %87(i32 noundef %88, i32 noundef %89)
  br label %90

90:                                               ; preds = %86, %72
  call void @llvm.lifetime.end.p0(i64 4, ptr %12) #11
  br label %91

91:                                               ; preds = %90
  %92 = load i32, ptr %11, align 4, !tbaa !4
  %93 = add i32 %92, 1
  store i32 %93, ptr %11, align 4, !tbaa !4
  br label %62, !llvm.loop !49

94:                                               ; preds = %71
  br label %95

95:                                               ; preds = %94
  %96 = load i32, ptr %9, align 4, !tbaa !4
  %97 = add i32 %96, 1
  store i32 %97, ptr %9, align 4, !tbaa !4
  br label %56, !llvm.loop !50

98:                                               ; preds = %60
  %99 = load ptr, ptr %5, align 8, !tbaa !8
  %100 = getelementptr inbounds %struct.vtx_data, ptr %99, i64 1
  %101 = getelementptr inbounds nuw %struct.vtx_data, ptr %100, i32 0, i32 1
  %102 = load ptr, ptr %101, align 8, !tbaa !40
  call void @free(ptr noundef %102) #11
  %103 = load ptr, ptr %5, align 8, !tbaa !8
  call void @free(ptr noundef %103) #11
  call void @llvm.lifetime.end.p0(i64 8, ptr %7) #11
  call void @llvm.lifetime.end.p0(i64 4, ptr %6) #11
  call void @llvm.lifetime.end.p0(i64 8, ptr %5) #11
  ret void
}