; Function Attrs: nounwind uwtable
define dso_local void @makeTetrix(i32 noundef %0, ptr noundef readonly captures(none) %1) local_unnamed_addr #0 {
  %3 = add i32 %0, -1
  %4 = uitofp i32 %3 to double
  %mul = fmul double %4, 2.000000e+00
  %exp2 = tail call double @exp2(double %mul) #15
  %5 = fadd double %exp2, 5.000000e-01
  %6 = fptoui double %5 to i32
  %7 = shl i32 %6, 1
  %8 = add i32 %7, 2
  %9 = add i32 %7, 3
  %10 = zext i32 %9 to i64
  %11 = tail call noalias ptr @calloc(i64 noundef range(i64 0, 4294967296) %10, i64 noundef 16) #17
  %12 = icmp eq ptr %11, null
  br i1 %12, label %13, label %gv_calloc.exit

13:                                               ; preds = %2
  %14 = load ptr, ptr @stderr, align 8, !tbaa !8
  %15 = shl nuw nsw i64 %10, 4
  %16 = tail call i32 (ptr, ptr, ...) @fprintf(ptr noundef %14, ptr noundef nonnull @.str.5, i64 noundef %15) #16
  tail call fastcc void @graphviz_exit() #18
  unreachable

gv_calloc.exit:                                   ; preds = %2
  %17 = mul i32 %8, 6
  %18 = zext i32 %17 to i64
  %19 = icmp ne i32 %17, 0
  %20 = tail call noalias ptr @calloc(i64 noundef range(i64 0, 4294967296) %18, i64 noundef 4) #17
  %21 = icmp eq ptr %20, null
  %or.cond3.i = and i1 %19, %21
  br i1 %or.cond3.i, label %22, label %gv_calloc.exit37.preheader

gv_calloc.exit37.preheader:                       ; preds = %gv_calloc.exit
  %.not38 = icmp eq i32 %8, 0
  br i1 %.not38, label %gv_calloc.exit37._crit_edge.thread, label %gv_calloc.exit37.preheader47

gv_calloc.exit37._crit_edge.thread:               ; preds = %gv_calloc.exit37.preheader
  tail call fastcc void @constructTetrix(i32 noundef 1, i32 noundef 2, i32 noundef 3, i32 noundef 4, i32 noundef %3, ptr noundef nonnull %11)
  br label %._crit_edge45

gv_calloc.exit37.preheader47:                     ; preds = %gv_calloc.exit37.preheader
  %umax = tail call i32 @llvm.umax.i32(i32 %9, i32 2)
  %wide.trip.count = zext i32 %umax to i64
  br label %gv_calloc.exit37

22:                                               ; preds = %gv_calloc.exit
  %23 = load ptr, ptr @stderr, align 8, !tbaa !8
  %24 = shl nuw nsw i64 %18, 2
  %25 = tail call i32 (ptr, ptr, ...) @fprintf(ptr noundef %23, ptr noundef nonnull @.str.5, i64 noundef %24) #16
  tail call fastcc void @graphviz_exit() #18
  unreachable

gv_calloc.exit37._crit_edge:                      ; preds = %gv_calloc.exit37
  tail call fastcc void @constructTetrix(i32 noundef 1, i32 noundef 2, i32 noundef 3, i32 noundef 4, i32 noundef %3, ptr noundef nonnull %11)
  %umax55 = tail call i32 @llvm.umax.i32(i32 %9, i32 2)
  %wide.trip.count56 = zext i32 %umax55 to i64
  br label %.preheader

gv_calloc.exit37:                                 ; preds = %gv_calloc.exit37.preheader47, %gv_calloc.exit37
  %indvars.iv = phi i64 [ 1, %gv_calloc.exit37.preheader47 ], [ %indvars.iv.next, %gv_calloc.exit37 ]
  %.03339 = phi ptr [ %20, %gv_calloc.exit37.preheader47 ], [ %28, %gv_calloc.exit37 ]
  %26 = getelementptr inbounds nuw %struct.vtx_data, ptr %11, i64 %indvars.iv
  %27 = getelementptr inbounds nuw i8, ptr %26, i64 8
  store ptr %.03339, ptr %27, align 8, !tbaa !35
  %28 = getelementptr inbounds nuw i8, ptr %.03339, i64 24
  store i32 0, ptr %26, align 8, !tbaa !38
  %indvars.iv.next = add nuw nsw i64 %indvars.iv, 1
  %exitcond = icmp eq i64 %indvars.iv.next, %wide.trip.count
  br i1 %exitcond, label %gv_calloc.exit37._crit_edge, label %gv_calloc.exit37, !llvm.loop !42

.preheader:                                       ; preds = %gv_calloc.exit37._crit_edge, %._crit_edge
  %indvars.iv52 = phi i64 [ 1, %gv_calloc.exit37._crit_edge ], [ %indvars.iv.next53, %._crit_edge ]
  %29 = getelementptr inbounds nuw %struct.vtx_data, ptr %11, i64 %indvars.iv52
  %30 = load i32, ptr %29, align 8, !tbaa !38
  %.not46 = icmp eq i32 %30, 0
  br i1 %.not46, label %._crit_edge, label %.lr.ph42

.lr.ph42:                                         ; preds = %.preheader
  %31 = getelementptr inbounds nuw i8, ptr %29, i64 8
  %32 = trunc nuw i64 %indvars.iv52 to i32
  br label %35

._crit_edge45:                                    ; preds = %._crit_edge, %gv_calloc.exit37._crit_edge.thread
  %33 = getelementptr inbounds nuw i8, ptr %11, i64 24
  %34 = load ptr, ptr %33, align 8, !tbaa !35
  tail call void @free(ptr noundef %34) #15
  tail call void @free(ptr noundef nonnull %11) #15
  ret void

._crit_edge:                                      ; preds = %43, %.preheader
  %indvars.iv.next53 = add nuw nsw i64 %indvars.iv52, 1
  %exitcond57 = icmp eq i64 %indvars.iv.next53, %wide.trip.count56
  br i1 %exitcond57, label %._crit_edge45, label %.preheader, !llvm.loop !43

35:                                               ; preds = %.lr.ph42, %43
  %36 = phi i32 [ %30, %.lr.ph42 ], [ %44, %43 ]
  %indvars.iv49 = phi i64 [ 0, %.lr.ph42 ], [ %indvars.iv.next50, %43 ]
  %37 = load ptr, ptr %31, align 8, !tbaa !35
  %38 = getelementptr inbounds nuw i32, ptr %37, i64 %indvars.iv49
  %39 = load i32, ptr %38, align 4, !tbaa !30
  %40 = zext i32 %39 to i64
  %41 = icmp samesign ult i64 %indvars.iv52, %40
  br i1 %41, label %42, label %43

42:                                               ; preds = %35
  tail call void %1(i32 noundef %32, i32 noundef %39) #15
  %.pre = load i32, ptr %29, align 8, !tbaa !38
  br label %43

43:                                               ; preds = %42, %35
  %44 = phi i32 [ %.pre, %42 ], [ %36, %35 ]
  %indvars.iv.next50 = add nuw nsw i64 %indvars.iv49, 1
  %45 = zext i32 %44 to i64
  %46 = icmp samesign ult i64 %indvars.iv.next50, %45
  br i1 %46, label %35, label %._crit_edge, !llvm.loop !44
}